; Function Attrs: mustprogress nofree norecurse nosync nounwind memory(argmem: readwrite) uwtable
define noundef zeroext i1 @_ZN3url20ExtractQueryKeyValueEPKcPNS_9ComponentES3_S3_(ptr noundef readonly captures(none) %0, ptr noundef captures(none) %1, ptr noundef writeonly captures(none) %2, ptr noundef writeonly captures(none) %3) local_unnamed_addr #6 {
  %5 = getelementptr inbounds nuw i8, ptr %1, i64 4
  %6 = load i32, ptr %5, align 4, !tbaa !8
  %7 = icmp sgt i32 %6, 0
  br i1 %7, label %8, label %_ZN3url12_GLOBAL__N_122DoExtractQueryKeyValueIcEEbPKT_PNS_9ComponentES6_S6_.exit

8:                                                ; preds = %4
  %9 = load i32, ptr %1, align 4, !tbaa !3
  %10 = add i32 %9, %6
  store i32 %9, ptr %2, align 4, !tbaa !3
  %11 = sext i32 %9 to i64
  %12 = sext i32 %10 to i64
  %13 = add nsw i64 %11, 1
  %smax = tail call i64 @llvm.smax.i64(i64 %13, i64 %12)
  br label %14

14:                                               ; preds = %17, %8
  %indvars.iv.i = phi i64 [ %11, %8 ], [ %indvars.iv.next.i, %17 ]
  %15 = getelementptr inbounds i8, ptr %0, i64 %indvars.iv.i
  %16 = load i8, ptr %15, align 1, !tbaa !21
  switch i8 %16, label %17 [
    i8 38, label %19
    i8 61, label %19
  ]

17:                                               ; preds = %14
  %indvars.iv.next.i = add nsw i64 %indvars.iv.i, 1
  %18 = icmp slt i64 %indvars.iv.next.i, %12
  br i1 %18, label %14, label %.critedge45.i, !llvm.loop !31

19:                                               ; preds = %14, %14
  %20 = getelementptr inbounds i8, ptr %0, i64 %indvars.iv.i
  %21 = trunc nsw i64 %indvars.iv.i to i32
  %22 = sub nsw i32 %21, %9
  %23 = getelementptr inbounds nuw i8, ptr %2, i64 4
  store i32 %22, ptr %23, align 4, !tbaa !8
  %24 = load i8, ptr %20, align 1, !tbaa !21
  %25 = icmp eq i8 %24, 61
  %26 = zext i1 %25 to i32
  %spec.select.i = add nsw i32 %26, %21
  br label %30

.critedge45.i:                                    ; preds = %17
  %27 = trunc nsw i64 %smax to i32
  %28 = sub nsw i32 %27, %9
  %29 = getelementptr inbounds nuw i8, ptr %2, i64 4
  store i32 %28, ptr %29, align 4, !tbaa !8
  br label %30

30:                                               ; preds = %.critedge45.i, %19
  %.1.i = phi i32 [ %27, %.critedge45.i ], [ %spec.select.i, %19 ]
  store i32 %.1.i, ptr %3, align 4, !tbaa !3
  %31 = icmp slt i32 %.1.i, %10
  br i1 %31, label %.lr.ph.preheader.i, label %.critedge46.i

.lr.ph.preheader.i:                               ; preds = %30
  %32 = sext i32 %.1.i to i64
  br label %.lr.ph.i

.lr.ph.i:                                         ; preds = %35, %.lr.ph.preheader.i
  %indvars.iv63.i = phi i64 [ %32, %.lr.ph.preheader.i ], [ %indvars.iv.next64.i, %35 ]
  %33 = getelementptr inbounds i8, ptr %0, i64 %indvars.iv63.i
  %34 = load i8, ptr %33, align 1, !tbaa !21
  %.not44.i = icmp eq i8 %34, 38
  br i1 %.not44.i, label %36, label %35

35:                                               ; preds = %.lr.ph.i
  %indvars.iv.next64.i = add nsw i64 %indvars.iv63.i, 1
  %lftr.wideiv.i = trunc i64 %indvars.iv.next64.i to i32
  %exitcond.not.i = icmp eq i32 %10, %lftr.wideiv.i
  br i1 %exitcond.not.i, label %.critedge46.i, label %.lr.ph.i, !llvm.loop !32

36:                                               ; preds = %.lr.ph.i
  %37 = getelementptr inbounds i8, ptr %0, i64 %indvars.iv63.i
  %38 = trunc nsw i64 %indvars.iv63.i to i32
  %39 = sub nsw i32 %38, %.1.i
  %40 = getelementptr inbounds nuw i8, ptr %3, i64 4
  store i32 %39, ptr %40, align 4, !tbaa !8
  %41 = load i8, ptr %37, align 1, !tbaa !21
  %42 = icmp eq i8 %41, 38
  %43 = zext i1 %42 to i32
  %spec.select47.i = add nsw i32 %43, %38
  br label %46

.critedge46.i:                                    ; preds = %35, %30
  %.2.lcssa.i = phi i32 [ %.1.i, %30 ], [ %10, %35 ]
  %44 = sub nsw i32 %.2.lcssa.i, %.1.i
  %45 = getelementptr inbounds nuw i8, ptr %3, i64 4
  store i32 %44, ptr %45, align 4, !tbaa !8
  br label %46

46:                                               ; preds = %.critedge46.i, %36
  %.3.i = phi i32 [ %.2.lcssa.i, %.critedge46.i ], [ %spec.select47.i, %36 ]
  %47 = sub nsw i32 %10, %.3.i
  %.sroa.2.0.insert.ext.i.i = zext i32 %47 to i64
  %.sroa.2.0.insert.shift.i.i = shl nuw i64 %.sroa.2.0.insert.ext.i.i, 32
  %.sroa.0.0.insert.ext.i.i = zext i32 %.3.i to i64
  %.sroa.0.0.insert.insert.i.i = or disjoint i64 %.sroa.2.0.insert.shift.i.i, %.sroa.0.0.insert.ext.i.i
  store i64 %.sroa.0.0.insert.insert.i.i, ptr %1, align 4
  br label %_ZN3url12_GLOBAL__N_122DoExtractQueryKeyValueIcEEbPKT_PNS_9ComponentES6_S6_.exit

_ZN3url12_GLOBAL__N_122DoExtractQueryKeyValueIcEEbPKT_PNS_9ComponentES6_S6_.exit: ; preds = %4, %46
  ret i1 %7
}